; Function Attrs: mustprogress nofree norecurse nosync nounwind willreturn memory(readwrite, inaccessiblemem: none) uwtable
define hidden void @_ZN9Assembler5testlE8Registeri(ptr nocapture noundef nonnull readonly align 8 dereferenceable(40) %0, i32 %1, i32 noundef %2) local_unnamed_addr #8 align 2 {
  %.not = icmp eq i32 %1, 0
  br i1 %.not, label %4, label %10

4:                                                ; preds = %3
  %5 = getelementptr inbounds i8, ptr %0, i64 8
  %6 = load ptr, ptr %5, align 8
  %7 = getelementptr inbounds i8, ptr %6, i64 16
  %8 = load ptr, ptr %7, align 8
  %9 = getelementptr inbounds i8, ptr %8, i64 1
  store i8 -87, ptr %8, align 1
  store ptr %9, ptr %7, align 8
  br label %47

10:                                               ; preds = %3
  %11 = sext i32 %1 to i64
  %12 = getelementptr inbounds %"class.Register::RegisterImpl", ptr getelementptr inbounds (i8, ptr @all_RegisterImpls, i64 1), i64 %11
  %13 = ptrtoint ptr %12 to i64
  %14 = trunc i64 %13 to i32
  %15 = sub i32 %14, ptrtoint (ptr getelementptr inbounds (i8, ptr @all_RegisterImpls, i64 1) to i32)
  %16 = icmp sgt i32 %15, 15
  br i1 %16, label %17, label %31

17:                                               ; preds = %10
  %18 = and i32 %15, 16
  %19 = lshr i32 %15, 3
  %20 = and i32 %19, 1
  %.1.i.i.i = or disjoint i32 %20, %18
  %21 = getelementptr inbounds i8, ptr %0, i64 8
  %22 = load ptr, ptr %21, align 8
  %23 = getelementptr inbounds i8, ptr %22, i64 16
  %24 = load ptr, ptr %23, align 8
  %25 = getelementptr inbounds i8, ptr %24, i64 1
  store i8 -43, ptr %24, align 1
  store ptr %25, ptr %23, align 8
  %26 = load ptr, ptr %21, align 8
  %.0.i.i2.i.i.i = trunc nuw nsw i32 %.1.i.i.i to i8
  %27 = getelementptr inbounds i8, ptr %26, i64 16
  %28 = load ptr, ptr %27, align 8
  %29 = getelementptr inbounds i8, ptr %28, i64 1
  store i8 %.0.i.i2.i.i.i, ptr %28, align 1
  store ptr %29, ptr %27, align 8
  %30 = and i32 %15, 7
  br label %_ZN9Assembler17prefix_and_encodeEibb.exit

31:                                               ; preds = %10
  %32 = icmp sgt i32 %15, 7
  br i1 %32, label %33, label %_ZN9Assembler17prefix_and_encodeEibb.exit

33:                                               ; preds = %31
  %34 = getelementptr inbounds i8, ptr %0, i64 8
  %35 = load ptr, ptr %34, align 8
  %36 = getelementptr inbounds i8, ptr %35, i64 16
  %37 = load ptr, ptr %36, align 8
  %38 = getelementptr inbounds i8, ptr %37, i64 1
  store i8 65, ptr %37, align 1
  store ptr %38, ptr %36, align 8
  %39 = add nsw i32 %15, -8
  br label %_ZN9Assembler17prefix_and_encodeEibb.exit

_ZN9Assembler17prefix_and_encodeEibb.exit:        ; preds = %33, %31, %17
  %.0.i = phi i32 [ %30, %17 ], [ %39, %33 ], [ %15, %31 ]
  %40 = getelementptr inbounds i8, ptr %0, i64 8
  %41 = load ptr, ptr %40, align 8
  %42 = trunc i32 %.0.i to i8
  %.0.i2.i = or i8 %42, -64
  %43 = getelementptr inbounds i8, ptr %41, i64 16
  %44 = load ptr, ptr %43, align 8
  %45 = getelementptr inbounds i8, ptr %44, i64 1
  store i8 -9, ptr %44, align 1
  %46 = getelementptr inbounds i8, ptr %44, i64 2
  store i8 %.0.i2.i, ptr %45, align 1
  store ptr %46, ptr %43, align 8
  br label %47

47:                                               ; preds = %_ZN9Assembler17prefix_and_encodeEibb.exit, %4
  %.sink = phi ptr [ %40, %_ZN9Assembler17prefix_and_encodeEibb.exit ], [ %5, %4 ]
  %48 = load ptr, ptr %.sink, align 8
  %49 = getelementptr inbounds i8, ptr %48, i64 16
  %50 = load ptr, ptr %49, align 8
  store i32 %2, ptr %50, align 1
  %51 = load ptr, ptr %49, align 8
  %52 = getelementptr inbounds i8, ptr %51, i64 4
  store ptr %52, ptr %49, align 8
  ret void
}